; Function Attrs: mustprogress uwtable
define hidden void @_ZN7datalog7context13ensure_closedEv(ptr noundef nonnull align 8 dereferenceable(3556) %this) local_unnamed_addr #3 align 2 {
entry:
  %m_closed = getelementptr inbounds i8, ptr %this, i64 3512
  %0 = load i8, ptr %m_closed, align 8
  %1 = and i8 %0, 1
  %tobool.not = icmp eq i8 %1, 0
  br i1 %tobool.not, label %if.then, label %if.end

if.then:                                          ; preds = %entry
  tail call void @_ZN7datalog7context5closeEv(ptr noundef nonnull align 8 dereferenceable(3556) %this)
  br label %if.end

if.end:                                           ; preds = %if.then, %entry
  ret void
}